target datalayout = "e-m:e-p270:32:32-p271:32:32-p272:64:64-i64:64-i128:128-f80:128-n8:16:32:64-S128"
target triple = "x86_64-pc-linux-gnu"

%class.LogTagSet = type { ptr, i64, [5 x i32], [4 x i8], %class.LogOutputList, %class.LogDecorators, ptr }
%class.LogOutputList = type <{ [6 x ptr], i32, [4 x i8] }>
%class.LogDecorators = type { i32 }
%class.GCLogPreciousHandle = type { %class.LogTargetHandle }
%class.LogTargetHandle = type { i32, ptr }
%class.ZRuntimeWorkers = type { %class.WorkerThreads }
%class.WorkerThreads = type { ptr, ptr, ptr, i32, i32, i32, %class.WorkerTaskDispatcher }
%class.WorkerTaskDispatcher = type { ptr, i32, i32, %class.Semaphore, %class.Semaphore }
%class.Semaphore = type { %class.PosixSemaphore }
%class.PosixSemaphore = type { %union.sem_t }
%union.sem_t = type { i64, [24 x i8] }
%class.LogTargetImpl = type { i8 }
%struct.__va_list_tag = type { i32, i32, ptr, ptr }

$_Z12jdouble_castl = comdat any

$_Z11jfloat_casti = comdat any

$_ZN15LogTargetHandle6createILN8LogLevel4typeE3ELN6LogTag4typeE49ELS4_58ELS4_0ELS4_0ELS4_0ELS4_0EEES_v = comdat any

$_ZN19GCLogPreciousHandleC2E15LogTargetHandle = comdat any

$_ZN19GCLogPreciousHandle5writeEPKcz = comdat any

$_ZNK13WorkerThreads11max_workersEv = comdat any

$_ZNK13WorkerThreads14active_workersEv = comdat any

$_ZN16LogTagSetMappingILN6LogTag4typeE49ELS1_58ELS1_0ELS1_0ELS1_0ELS1_0EE7_tagsetE = comdat any

$_ZN9LogPrefixILN6LogTag4typeE49ELS1_58ELS1_0ELS1_0ELS1_0ELS1_0EE6prefixEPcm = comdat any

$_ZN13LogTargetImplILN8LogLevel4typeE3ELN6LogTag4typeE49ELS3_58ELS3_0ELS3_0ELS3_0ELS3_0EEC2Ev = comdat any

$_ZN15LogTargetHandleC2ILN8LogLevel4typeE3ELN6LogTag4typeE49ELS4_58ELS4_0ELS4_0ELS4_0ELS4_0EEERK13LogTargetImplIXT_EXT0_EXT1_EXT2_EXT3_EXT4_EXT5_EE = comdat any

$_ZN16LogTagSetMappingILN6LogTag4typeE49ELS1_58ELS1_0ELS1_0ELS1_0ELS1_0EE6tagsetEv = comdat any

@_ZL11min_jdouble = internal global double 0.000000e+00, align 8
@_ZL11max_jdouble = internal global double 0.000000e+00, align 8
@_ZL10min_jfloat = internal global float 0.000000e+00, align 4
@_ZL10max_jfloat = internal global float 0.000000e+00, align 4
@.str = private unnamed_addr constant [14 x i8] c"RuntimeWorker\00", align 1
@ParallelGCThreads = external global i32, align 4
@.str.4 = private unnamed_addr constant [20 x i8] c"Runtime Workers: %u\00", align 1
@.str.5 = private unnamed_addr constant [33 x i8] c"Failed to create ZRuntimeWorkers\00", align 1
@_ZN16LogTagSetMappingILN6LogTag4typeE49ELS1_58ELS1_0ELS1_0ELS1_0ELS1_0EE7_tagsetE = linkonce_odr hidden global %class.LogTagSet zeroinitializer, comdat, align 8
@_ZGVN16LogTagSetMappingILN6LogTag4typeE49ELS1_58ELS1_0ELS1_0ELS1_0ELS1_0EE7_tagsetE = linkonce_odr hidden global i64 0, comdat($_ZN16LogTagSetMappingILN6LogTag4typeE49ELS1_58ELS1_0ELS1_0ELS1_0ELS1_0EE7_tagsetE), align 8
@llvm.global_ctors = appending global [2 x { i32, ptr, ptr }] [{ i32, ptr, ptr } { i32 65535, ptr @__cxx_global_var_init.6, ptr @_ZN16LogTagSetMappingILN6LogTag4typeE49ELS1_58ELS1_0ELS1_0ELS1_0ELS1_0EE7_tagsetE }, { i32, ptr, ptr } { i32 65535, ptr @_GLOBAL__sub_I_zRuntimeWorkers.cpp, ptr null }]
@llvm.used = appending global [1 x ptr] [ptr @_ZN16LogTagSetMappingILN6LogTag4typeE49ELS1_58ELS1_0ELS1_0ELS1_0ELS1_0EE7_tagsetE], section "llvm.metadata"

@_ZN15ZRuntimeWorkersC1Ev = hidden unnamed_addr alias void (ptr), ptr @_ZN15ZRuntimeWorkersC2Ev

; Function Attrs: nounwind uwtable
define internal void @__cxx_global_var_init() #0 section ".text.startup" {
  %1 = call noundef double @_Z12jdouble_castl(i64 noundef 1)
  store double %1, ptr @_ZL11min_jdouble, align 8
  ret void
}

; Function Attrs: mustprogress nounwind uwtable
define linkonce_odr hidden noundef double @_Z12jdouble_castl(i64 noundef %0) #1 comdat {
  %2 = alloca i64, align 8
  store i64 %0, ptr %2, align 8
  %3 = load double, ptr %2, align 8
  ret double %3
}

; Function Attrs: nounwind uwtable
define internal void @__cxx_global_var_init.1() #0 section ".text.startup" {
  %1 = call noundef double @_Z12jdouble_castl(i64 noundef 9218868437227405311)
  store double %1, ptr @_ZL11max_jdouble, align 8
  ret void
}

; Function Attrs: nounwind uwtable
define internal void @__cxx_global_var_init.2() #0 section ".text.startup" {
  %1 = call noundef float @_Z11jfloat_casti(i32 noundef 1)
  store float %1, ptr @_ZL10min_jfloat, align 4
  ret void
}

; Function Attrs: mustprogress nounwind uwtable
define linkonce_odr hidden noundef float @_Z11jfloat_casti(i32 noundef %0) #1 comdat {
  %2 = alloca i32, align 4
  store i32 %0, ptr %2, align 4
  %3 = load float, ptr %2, align 4
  ret float %3
}

; Function Attrs: nounwind uwtable
define internal void @__cxx_global_var_init.3() #0 section ".text.startup" {
  %1 = call noundef float @_Z11jfloat_casti(i32 noundef 2139095039)
  store float %1, ptr @_ZL10max_jfloat, align 4
  ret void
}

; Function Attrs: mustprogress nounwind uwtable
define hidden void @_ZN15ZRuntimeWorkersC2Ev(ptr noundef nonnull align 8 dereferenceable(120) %0) unnamed_addr #1 align 2 {
  %2 = alloca ptr, align 8
  %3 = alloca %class.GCLogPreciousHandle, align 8
  %4 = alloca %class.LogTargetHandle, align 8
  store ptr %0, ptr %2, align 8
  %5 = load ptr, ptr %2, align 8
  %6 = getelementptr inbounds %class.ZRuntimeWorkers, ptr %5, i32 0, i32 0
  %7 = load i32, ptr @ParallelGCThreads, align 4
  call void @_ZN13WorkerThreadsC1EPKcj(ptr noundef nonnull align 8 dereferenceable(120) %6, ptr noundef @.str, i32 noundef %7)
  %8 = call { i32, ptr } @_ZN15LogTargetHandle6createILN8LogLevel4typeE3ELN6LogTag4typeE49ELS4_58ELS4_0ELS4_0ELS4_0ELS4_0EEES_v()
  %9 = getelementptr inbounds { i32, ptr }, ptr %4, i32 0, i32 0
  %10 = extractvalue { i32, ptr } %8, 0
  store i32 %10, ptr %9, align 8
  %11 = getelementptr inbounds { i32, ptr }, ptr %4, i32 0, i32 1
  %12 = extractvalue { i32, ptr } %8, 1
  store ptr %12, ptr %11, align 8
  %13 = getelementptr inbounds { i32, ptr }, ptr %4, i32 0, i32 0
  %14 = load i32, ptr %13, align 8
  %15 = getelementptr inbounds { i32, ptr }, ptr %4, i32 0, i32 1
  %16 = load ptr, ptr %15, align 8
  call void @_ZN19GCLogPreciousHandleC2E15LogTargetHandle(ptr noundef nonnull align 8 dereferenceable(16) %3, i32 %14, ptr %16)
  %17 = getelementptr inbounds %class.ZRuntimeWorkers, ptr %5, i32 0, i32 0
  %18 = call noundef i32 @_ZNK13WorkerThreads11max_workersEv(ptr noundef nonnull align 8 dereferenceable(120) %17)
  call void (ptr, ptr, ...) @_ZN19GCLogPreciousHandle5writeEPKcz(ptr noundef nonnull align 8 dereferenceable(16) %3, ptr noundef @.str.4, i32 noundef %18)
  %19 = getelementptr inbounds %class.ZRuntimeWorkers, ptr %5, i32 0, i32 0
  call void @_ZN13WorkerThreads18initialize_workersEv(ptr noundef nonnull align 8 dereferenceable(120) %19)
  %20 = getelementptr inbounds %class.ZRuntimeWorkers, ptr %5, i32 0, i32 0
  %21 = getelementptr inbounds %class.ZRuntimeWorkers, ptr %5, i32 0, i32 0
  %22 = call noundef i32 @_ZNK13WorkerThreads11max_workersEv(ptr noundef nonnull align 8 dereferenceable(120) %21)
  %23 = call noundef i32 @_ZN13WorkerThreads18set_active_workersEj(ptr noundef nonnull align 8 dereferenceable(120) %20, i32 noundef %22)
  %24 = getelementptr inbounds %class.ZRuntimeWorkers, ptr %5, i32 0, i32 0
  %25 = call noundef i32 @_ZNK13WorkerThreads14active_workersEv(ptr noundef nonnull align 8 dereferenceable(120) %24)
  %26 = getelementptr inbounds %class.ZRuntimeWorkers, ptr %5, i32 0, i32 0
  %27 = call noundef i32 @_ZNK13WorkerThreads11max_workersEv(ptr noundef nonnull align 8 dereferenceable(120) %26)
  %28 = icmp ne i32 %25, %27
  br i1 %28, label %29, label %30

29:                                               ; preds = %1
  call void @_Z29vm_exit_during_initializationPKcS0_(ptr noundef @.str.5, ptr noundef null)
  br label %30

30:                                               ; preds = %29, %1
  ret void
}

declare void @_ZN13WorkerThreadsC1EPKcj(ptr noundef nonnull align 8 dereferenceable(120), ptr noundef, i32 noundef) unnamed_addr #2

; Function Attrs: mustprogress nounwind uwtable
define linkonce_odr hidden { i32, ptr } @_ZN15LogTargetHandle6createILN8LogLevel4typeE3ELN6LogTag4typeE49ELS4_58ELS4_0ELS4_0ELS4_0ELS4_0EEES_v() #1 comdat align 2 {
  %1 = alloca %class.LogTargetHandle, align 8
  %2 = alloca %class.LogTargetImpl, align 1
  call void @_ZN13LogTargetImplILN8LogLevel4typeE3ELN6LogTag4typeE49ELS3_58ELS3_0ELS3_0ELS3_0ELS3_0EEC2Ev(ptr noundef nonnull align 1 dereferenceable(1) %2)
  call void @_ZN15LogTargetHandleC2ILN8LogLevel4typeE3ELN6LogTag4typeE49ELS4_58ELS4_0ELS4_0ELS4_0ELS4_0EEERK13LogTargetImplIXT_EXT0_EXT1_EXT2_EXT3_EXT4_EXT5_EE(ptr noundef nonnull align 8 dereferenceable(16) %1, ptr noundef nonnull align 1 dereferenceable(1) %2)
  %3 = load { i32, ptr }, ptr %1, align 8
  ret { i32, ptr } %3
}

; Function Attrs: mustprogress nounwind uwtable
define linkonce_odr hidden void @_ZN19GCLogPreciousHandleC2E15LogTargetHandle(ptr noundef nonnull align 8 dereferenceable(16) %0, i32 %1, ptr %2) unnamed_addr #1 comdat align 2 {
  %4 = alloca %class.LogTargetHandle, align 8
  %5 = alloca ptr, align 8
  %6 = getelementptr inbounds { i32, ptr }, ptr %4, i32 0, i32 0
  store i32 %1, ptr %6, align 8
  %7 = getelementptr inbounds { i32, ptr }, ptr %4, i32 0, i32 1
  store ptr %2, ptr %7, align 8
  store ptr %0, ptr %5, align 8
  %8 = load ptr, ptr %5, align 8
  %9 = getelementptr inbounds %class.GCLogPreciousHandle, ptr %8, i32 0, i32 0
  call void @llvm.memcpy.p0.p0.i64(ptr align 8 %9, ptr align 8 %4, i64 16, i1 false)
  ret void
}

; Function Attrs: mustprogress nounwind uwtable
define linkonce_odr hidden void @_ZN19GCLogPreciousHandle5writeEPKcz(ptr noundef nonnull align 8 dereferenceable(16) %0, ptr noundef %1, ...) #1 comdat align 2 {
  %3 = alloca ptr, align 8
  %4 = alloca ptr, align 8
  %5 = alloca [1 x %struct.__va_list_tag], align 16
  %6 = alloca %class.LogTargetHandle, align 8
  store ptr %0, ptr %3, align 8
  store ptr %1, ptr %4, align 8
  %7 = load ptr, ptr %3, align 8
  %8 = getelementptr inbounds [1 x %struct.__va_list_tag], ptr %5, i64 0, i64 0
  call void @llvm.va_start.p0(ptr %8)
  %9 = getelementptr inbounds %class.GCLogPreciousHandle, ptr %7, i32 0, i32 0
  call void @llvm.memcpy.p0.p0.i64(ptr align 8 %6, ptr align 8 %9, i64 16, i1 false)
  %10 = load ptr, ptr %4, align 8
  %11 = getelementptr inbounds [1 x %struct.__va_list_tag], ptr %5, i64 0, i64 0
  %12 = getelementptr inbounds { i32, ptr }, ptr %6, i32 0, i32 0
  %13 = load i32, ptr %12, align 8
  %14 = getelementptr inbounds { i32, ptr }, ptr %6, i32 0, i32 1
  %15 = load ptr, ptr %14, align 8
  call void @_ZN13GCLogPrecious6vwriteE15LogTargetHandlePKcP13__va_list_tag(i32 %13, ptr %15, ptr noundef %10, ptr noundef %11)
  %16 = getelementptr inbounds [1 x %struct.__va_list_tag], ptr %5, i64 0, i64 0
  call void @llvm.va_end.p0(ptr %16)
  ret void
}

; Function Attrs: mustprogress nounwind uwtable
define linkonce_odr hidden noundef i32 @_ZNK13WorkerThreads11max_workersEv(ptr noundef nonnull align 8 dereferenceable(120) %0) #1 comdat align 2 {
  %2 = alloca ptr, align 8
  store ptr %0, ptr %2, align 8
  %3 = load ptr, ptr %2, align 8
  %4 = getelementptr inbounds %class.WorkerThreads, ptr %3, i32 0, i32 3
  %5 = load i32, ptr %4, align 8
  ret i32 %5
}

declare void @_ZN13WorkerThreads18initialize_workersEv(ptr noundef nonnull align 8 dereferenceable(120)) #2

declare noundef i32 @_ZN13WorkerThreads18set_active_workersEj(ptr noundef nonnull align 8 dereferenceable(120), i32 noundef) #2

; Function Attrs: mustprogress nounwind uwtable
define linkonce_odr hidden noundef i32 @_ZNK13WorkerThreads14active_workersEv(ptr noundef nonnull align 8 dereferenceable(120) %0) #1 comdat align 2 {
  %2 = alloca ptr, align 8
  store ptr %0, ptr %2, align 8
  %3 = load ptr, ptr %2, align 8
  %4 = getelementptr inbounds %class.WorkerThreads, ptr %3, i32 0, i32 5
  %5 = load i32, ptr %4, align 8
  ret i32 %5
}

declare void @_Z29vm_exit_during_initializationPKcS0_(ptr noundef, ptr noundef) #2

; Function Attrs: mustprogress nounwind uwtable
define hidden noundef ptr @_ZN15ZRuntimeWorkers7workersEv(ptr noundef nonnull align 8 dereferenceable(120) %0) #1 align 2 {
  %2 = alloca ptr, align 8
  store ptr %0, ptr %2, align 8
  %3 = load ptr, ptr %2, align 8
  %4 = getelementptr inbounds %class.ZRuntimeWorkers, ptr %3, i32 0, i32 0
  ret ptr %4
}

; Function Attrs: mustprogress nounwind uwtable
define hidden void @_ZNK15ZRuntimeWorkers10threads_doEP13ThreadClosure(ptr noundef nonnull align 8 dereferenceable(120) %0, ptr noundef %1) #1 align 2 {
  %3 = alloca ptr, align 8
  %4 = alloca ptr, align 8
  store ptr %0, ptr %3, align 8
  store ptr %1, ptr %4, align 8
  %5 = load ptr, ptr %3, align 8
  %6 = getelementptr inbounds %class.ZRuntimeWorkers, ptr %5, i32 0, i32 0
  %7 = load ptr, ptr %4, align 8
  call void @_ZNK13WorkerThreads10threads_doEP13ThreadClosure(ptr noundef nonnull align 8 dereferenceable(120) %6, ptr noundef %7)
  ret void
}

declare void @_ZNK13WorkerThreads10threads_doEP13ThreadClosure(ptr noundef nonnull align 8 dereferenceable(120), ptr noundef) #2

; Function Attrs: nounwind uwtable
define internal void @__cxx_global_var_init.6() #0 section ".text.startup" comdat($_ZN16LogTagSetMappingILN6LogTag4typeE49ELS1_58ELS1_0ELS1_0ELS1_0ELS1_0EE7_tagsetE) {
  %1 = load i8, ptr @_ZGVN16LogTagSetMappingILN6LogTag4typeE49ELS1_58ELS1_0ELS1_0ELS1_0ELS1_0EE7_tagsetE, align 8
  %2 = icmp eq i8 %1, 0
  br i1 %2, label %3, label %4

3:                                                ; preds = %0
  store i8 1, ptr @_ZGVN16LogTagSetMappingILN6LogTag4typeE49ELS1_58ELS1_0ELS1_0ELS1_0ELS1_0EE7_tagsetE, align 8
  call void @_ZN9LogTagSetC1EPFmPcmEN6LogTag4typeES4_S4_S4_S4_(ptr noundef nonnull align 8 dereferenceable(112) @_ZN16LogTagSetMappingILN6LogTag4typeE49ELS1_58ELS1_0ELS1_0ELS1_0ELS1_0EE7_tagsetE, ptr noundef @_ZN9LogPrefixILN6LogTag4typeE49ELS1_58ELS1_0ELS1_0ELS1_0ELS1_0EE6prefixEPcm, i32 noundef 49, i32 noundef 58, i32 noundef 0, i32 noundef 0, i32 noundef 0)
  br label %4

4:                                                ; preds = %3, %0
  ret void
}

; Function Attrs: mustprogress nounwind uwtable
define linkonce_odr hidden noundef i64 @_ZN9LogPrefixILN6LogTag4typeE49ELS1_58ELS1_0ELS1_0ELS1_0ELS1_0EE6prefixEPcm(ptr noundef %0, i64 noundef %1) #1 comdat align 2 {
  %3 = alloca ptr, align 8
  %4 = alloca i64, align 8
  store ptr %0, ptr %3, align 8
  store i64 %1, ptr %4, align 8
  ret i64 0
}

declare void @_ZN9LogTagSetC1EPFmPcmEN6LogTag4typeES4_S4_S4_S4_(ptr noundef nonnull align 8 dereferenceable(112), ptr noundef, i32 noundef, i32 noundef, i32 noundef, i32 noundef, i32 noundef) unnamed_addr #2

; Function Attrs: nocallback nofree nounwind willreturn memory(argmem: readwrite)
declare void @llvm.memcpy.p0.p0.i64(ptr noalias nocapture writeonly, ptr noalias nocapture readonly, i64, i1 immarg) #3

; Function Attrs: nocallback nofree nosync nounwind willreturn
declare void @llvm.va_start.p0(ptr) #4

declare void @_ZN13GCLogPrecious6vwriteE15LogTargetHandlePKcP13__va_list_tag(i32, ptr, ptr noundef, ptr noundef) #2

; Function Attrs: nocallback nofree nosync nounwind willreturn
declare void @llvm.va_end.p0(ptr) #4

; Function Attrs: mustprogress nounwind uwtable
define linkonce_odr hidden void @_ZN13LogTargetImplILN8LogLevel4typeE3ELN6LogTag4typeE49ELS3_58ELS3_0ELS3_0ELS3_0ELS3_0EEC2Ev(ptr noundef nonnull align 1 dereferenceable(1) %0) unnamed_addr #1 comdat align 2 {
  %2 = alloca ptr, align 8
  store ptr %0, ptr %2, align 8
  ret void
}

; Function Attrs: mustprogress nounwind uwtable
define linkonce_odr hidden void @_ZN15LogTargetHandleC2ILN8LogLevel4typeE3ELN6LogTag4typeE49ELS4_58ELS4_0ELS4_0ELS4_0ELS4_0EEERK13LogTargetImplIXT_EXT0_EXT1_EXT2_EXT3_EXT4_EXT5_EE(ptr noundef nonnull align 8 dereferenceable(16) %0, ptr noundef nonnull align 1 dereferenceable(1) %1) unnamed_addr #1 comdat align 2 {
  %3 = alloca ptr, align 8
  %4 = alloca ptr, align 8
  store ptr %0, ptr %3, align 8
  store ptr %1, ptr %4, align 8
  %5 = load ptr, ptr %3, align 8
  %6 = getelementptr inbounds %class.LogTargetHandle, ptr %5, i32 0, i32 0
  store i32 3, ptr %6, align 8
  %7 = getelementptr inbounds %class.LogTargetHandle, ptr %5, i32 0, i32 1
  %8 = call noundef nonnull align 8 dereferenceable(112) ptr @_ZN16LogTagSetMappingILN6LogTag4typeE49ELS1_58ELS1_0ELS1_0ELS1_0ELS1_0EE6tagsetEv()
  store ptr %8, ptr %7, align 8
  ret void
}

; Function Attrs: mustprogress nounwind uwtable
define linkonce_odr hidden noundef nonnull align 8 dereferenceable(112) ptr @_ZN16LogTagSetMappingILN6LogTag4typeE49ELS1_58ELS1_0ELS1_0ELS1_0ELS1_0EE6tagsetEv() #1 comdat align 2 {
  ret ptr @_ZN16LogTagSetMappingILN6LogTag4typeE49ELS1_58ELS1_0ELS1_0ELS1_0ELS1_0EE7_tagsetE
}

; Function Attrs: nounwind uwtable
define internal void @_GLOBAL__sub_I_zRuntimeWorkers.cpp() #0 section ".text.startup" {
  call void @__cxx_global_var_init()
  call void @__cxx_global_var_init.1()
  call void @__cxx_global_var_init.2()
  call void @__cxx_global_var_init.3()
  ret void
}


!llvm.module.flags = !{!0, !1, !2, !3, !4, !5}

!0 = !{i32 7, !"Dwarf Version", i32 5}
!1 = !{i32 2, !"Debug Info Version", i32 3}
!2 = !{i32 1, !"wchar_size", i32 4}
!3 = !{i32 8, !"PIC Level", i32 2}
!4 = !{i32 7, !"uwtable", i32 2}
!5 = !{i32 7, !"frame-pointer", i32 2}
