; ModuleID = 'bench/openjdk/original/zRuntimeWorkers.ll'
source_filename = "bench/openjdk/original/zRuntimeWorkers.ll"
target datalayout = "e-m:e-p270:32:32-p271:32:32-p272:64:64-i64:64-i128:128-f80:128-n8:16:32:64-S128"
target triple = "x86_64-pc-linux-gnu"

%class.LogTagSet = type { ptr, i64, [5 x i32], [4 x i8], %class.LogOutputList, %class.LogDecorators, ptr }
%class.LogOutputList = type <{ [6 x ptr], i32, [4 x i8] }>
%class.LogDecorators = type { i32 }
%class.GCLogPreciousHandle = type { %class.LogTargetHandle }
%class.LogTargetHandle = type { i32, ptr }
%struct.__va_list_tag = type { i32, i32, ptr, ptr }

$_ZN19GCLogPreciousHandle5writeEPKcz = comdat any

$_ZN16LogTagSetMappingILN6LogTag4typeE49ELS1_58ELS1_0ELS1_0ELS1_0ELS1_0EE7_tagsetE = comdat any

$_ZN9LogPrefixILN6LogTag4typeE49ELS1_58ELS1_0ELS1_0ELS1_0ELS1_0EE6prefixEPcm = comdat any

@.str = private unnamed_addr constant [14 x i8] c"RuntimeWorker\00", align 1
@ParallelGCThreads = external local_unnamed_addr global i32, align 4
@.str.4 = private unnamed_addr constant [20 x i8] c"Runtime Workers: %u\00", align 1
@.str.5 = private unnamed_addr constant [33 x i8] c"Failed to create ZRuntimeWorkers\00", align 1
@_ZN16LogTagSetMappingILN6LogTag4typeE49ELS1_58ELS1_0ELS1_0ELS1_0ELS1_0EE7_tagsetE = linkonce_odr hidden global %class.LogTagSet zeroinitializer, comdat, align 8
@_ZGVN16LogTagSetMappingILN6LogTag4typeE49ELS1_58ELS1_0ELS1_0ELS1_0ELS1_0EE7_tagsetE = linkonce_odr hidden local_unnamed_addr global i64 0, comdat($_ZN16LogTagSetMappingILN6LogTag4typeE49ELS1_58ELS1_0ELS1_0ELS1_0ELS1_0EE7_tagsetE), align 8
@llvm.global_ctors = appending global [1 x { i32, ptr, ptr }] [{ i32, ptr, ptr } { i32 65535, ptr @__cxx_global_var_init.6, ptr @_ZN16LogTagSetMappingILN6LogTag4typeE49ELS1_58ELS1_0ELS1_0ELS1_0ELS1_0EE7_tagsetE }]
@llvm.used = appending global [1 x ptr] [ptr @_ZN16LogTagSetMappingILN6LogTag4typeE49ELS1_58ELS1_0ELS1_0ELS1_0ELS1_0EE7_tagsetE], section "llvm.metadata"

@_ZN15ZRuntimeWorkersC1Ev = hidden unnamed_addr alias void (ptr), ptr @_ZN15ZRuntimeWorkersC2Ev

; Function Attrs: mustprogress nounwind uwtable
define hidden void @_ZN15ZRuntimeWorkersC2Ev(ptr noundef nonnull align 8 dereferenceable(120) %0) unnamed_addr #0 align 2 {
  %2 = alloca %class.GCLogPreciousHandle, align 8
  %3 = load i32, ptr @ParallelGCThreads, align 4
  tail call void @_ZN13WorkerThreadsC1EPKcj(ptr noundef nonnull align 8 dereferenceable(120) %0, ptr noundef nonnull @.str, i32 noundef %3) #5
  store i32 3, ptr %2, align 8
  %.sroa.21.0..sroa_idx.i = getelementptr inbounds i8, ptr %2, i64 8
  store ptr @_ZN16LogTagSetMappingILN6LogTag4typeE49ELS1_58ELS1_0ELS1_0ELS1_0ELS1_0EE7_tagsetE, ptr %.sroa.21.0..sroa_idx.i, align 8
  %4 = getelementptr inbounds i8, ptr %0, i64 24
  %5 = load i32, ptr %4, align 8
  call void (ptr, ptr, ...) @_ZN19GCLogPreciousHandle5writeEPKcz(ptr noundef nonnull align 8 dereferenceable(16) %2, ptr noundef nonnull @.str.4, i32 noundef %5)
  call void @_ZN13WorkerThreads18initialize_workersEv(ptr noundef nonnull align 8 dereferenceable(120) %0) #5
  %6 = load i32, ptr %4, align 8
  %7 = call noundef i32 @_ZN13WorkerThreads18set_active_workersEj(ptr noundef nonnull align 8 dereferenceable(120) %0, i32 noundef %6) #5
  %8 = getelementptr inbounds i8, ptr %0, i64 32
  %9 = load i32, ptr %8, align 8
  %10 = load i32, ptr %4, align 8
  %.not = icmp eq i32 %9, %10
  br i1 %.not, label %12, label %11

11:                                               ; preds = %1
  call void @_Z29vm_exit_during_initializationPKcS0_(ptr noundef nonnull @.str.5, ptr noundef null) #5
  br label %12

12:                                               ; preds = %11, %1
  ret void
}

declare void @_ZN13WorkerThreadsC1EPKcj(ptr noundef nonnull align 8 dereferenceable(120), ptr noundef, i32 noundef) unnamed_addr #1

; Function Attrs: mustprogress nounwind uwtable
define linkonce_odr hidden void @_ZN19GCLogPreciousHandle5writeEPKcz(ptr noundef nonnull align 8 dereferenceable(16) %0, ptr noundef %1, ...) local_unnamed_addr #0 comdat align 2 {
  %3 = alloca [1 x %struct.__va_list_tag], align 16
  call void @llvm.va_start.p0(ptr nonnull %3)
  %.sroa.0.0.copyload = load i32, ptr %0, align 8
  %.sroa.21.0..sroa_idx = getelementptr inbounds i8, ptr %0, i64 8
  %.sroa.21.0.copyload = load ptr, ptr %.sroa.21.0..sroa_idx, align 8
  call void @_ZN13GCLogPrecious6vwriteE15LogTargetHandlePKcP13__va_list_tag(i32 %.sroa.0.0.copyload, ptr %.sroa.21.0.copyload, ptr noundef %1, ptr noundef nonnull %3) #5
  call void @llvm.va_end.p0(ptr nonnull %3)
  ret void
}

declare void @_ZN13WorkerThreads18initialize_workersEv(ptr noundef nonnull align 8 dereferenceable(120)) local_unnamed_addr #1

declare noundef i32 @_ZN13WorkerThreads18set_active_workersEj(ptr noundef nonnull align 8 dereferenceable(120), i32 noundef) local_unnamed_addr #1

declare void @_Z29vm_exit_during_initializationPKcS0_(ptr noundef, ptr noundef) local_unnamed_addr #1

; Function Attrs: mustprogress nofree norecurse nosync nounwind willreturn memory(none) uwtable
define hidden noundef nonnull ptr @_ZN15ZRuntimeWorkers7workersEv(ptr noundef nonnull readnone returned align 8 dereferenceable(120) %0) local_unnamed_addr #2 align 2 {
  ret ptr %0
}

; Function Attrs: mustprogress nounwind uwtable
define hidden void @_ZNK15ZRuntimeWorkers10threads_doEP13ThreadClosure(ptr noundef nonnull align 8 dereferenceable(120) %0, ptr noundef %1) local_unnamed_addr #0 align 2 {
  tail call void @_ZNK13WorkerThreads10threads_doEP13ThreadClosure(ptr noundef nonnull align 8 dereferenceable(120) %0, ptr noundef %1) #5
  ret void
}

declare void @_ZNK13WorkerThreads10threads_doEP13ThreadClosure(ptr noundef nonnull align 8 dereferenceable(120), ptr noundef) local_unnamed_addr #1

; Function Attrs: nounwind uwtable
define internal void @__cxx_global_var_init.6() #3 section ".text.startup" comdat($_ZN16LogTagSetMappingILN6LogTag4typeE49ELS1_58ELS1_0ELS1_0ELS1_0ELS1_0EE7_tagsetE) {
  %1 = load i8, ptr @_ZGVN16LogTagSetMappingILN6LogTag4typeE49ELS1_58ELS1_0ELS1_0ELS1_0ELS1_0EE7_tagsetE, align 8
  %2 = icmp eq i8 %1, 0
  br i1 %2, label %3, label %4

3:                                                ; preds = %0
  store i8 1, ptr @_ZGVN16LogTagSetMappingILN6LogTag4typeE49ELS1_58ELS1_0ELS1_0ELS1_0ELS1_0EE7_tagsetE, align 8
  tail call void @_ZN9LogTagSetC1EPFmPcmEN6LogTag4typeES4_S4_S4_S4_(ptr noundef nonnull align 8 dereferenceable(112) @_ZN16LogTagSetMappingILN6LogTag4typeE49ELS1_58ELS1_0ELS1_0ELS1_0ELS1_0EE7_tagsetE, ptr noundef nonnull @_ZN9LogPrefixILN6LogTag4typeE49ELS1_58ELS1_0ELS1_0ELS1_0ELS1_0EE6prefixEPcm, i32 noundef 49, i32 noundef 58, i32 noundef 0, i32 noundef 0, i32 noundef 0) #5
  br label %4

4:                                                ; preds = %3, %0
  ret void
}

; Function Attrs: mustprogress nounwind uwtable
define linkonce_odr hidden noundef i64 @_ZN9LogPrefixILN6LogTag4typeE49ELS1_58ELS1_0ELS1_0ELS1_0ELS1_0EE6prefixEPcm(ptr noundef %0, i64 noundef %1) #0 comdat align 2 {
  ret i64 0
}

declare void @_ZN9LogTagSetC1EPFmPcmEN6LogTag4typeES4_S4_S4_S4_(ptr noundef nonnull align 8 dereferenceable(112), ptr noundef, i32 noundef, i32 noundef, i32 noundef, i32 noundef, i32 noundef) unnamed_addr #1

; Function Attrs: mustprogress nocallback nofree nosync nounwind willreturn
declare void @llvm.va_start.p0(ptr) #4

declare void @_ZN13GCLogPrecious6vwriteE15LogTargetHandlePKcP13__va_list_tag(i32, ptr, ptr noundef, ptr noundef) local_unnamed_addr #1

; Function Attrs: mustprogress nocallback nofree nosync nounwind willreturn
declare void @llvm.va_end.p0(ptr) #4


!llvm.module.flags = !{!0, !1, !2, !3, !4, !5}

!0 = !{i32 7, !"Dwarf Version", i32 5}
!1 = !{i32 2, !"Debug Info Version", i32 3}
!2 = !{i32 1, !"wchar_size", i32 4}
!3 = !{i32 8, !"PIC Level", i32 2}
!4 = !{i32 7, !"uwtable", i32 2}
!5 = !{i32 7, !"frame-pointer", i32 2}
